(dp0
S'l_wrist_roll_joint'
p1
I6
sS'r_elbow_flex_joint'
p2
I11
sS'r_forearm_roll_joint'
p3
I12
sS'l_forearm_roll_joint'
p4
I4
sS'r_shoulder_lift_joint'
p5
I9
sS'r_gripper_joint'
p6
I15
sS'l_elbow_flex_joint'
p7
I3
sS'r_upper_arm_roll_joint'
p8
I10
sS'r_wrist_roll_joint'
p9
I14
sS'l_shoulder_lift_joint'
p10
I1
sS'l_upper_arm_roll_joint'
p11
I2
sS'r_shoulder_pan_joint'
p12
I8
sS'l_gripper_joint'
p13
I7
sS'r_wrist_flex_joint'
p14
I13
sS'l_wrist_flex_joint'
p15
I5
sS'l_shoulder_pan_joint'
p16
I0
s.